target datalayout = "e-m:e-p270:32:32-p271:32:32-p272:64:64-i64:64-i128:128-f80:128-n8:16:32:64-S128"
target triple = "x86_64-pc-linux-gnu"

@hf_kafka_acl_resource_type = internal global i32 0, align 4
@hf_kafka_acl_resource_name = internal global i32 0, align 4
@hf_kafka_acl_resource_pattern_type = internal global i32 0, align 4
@hf_kafka_acl_principal = internal global i32 0, align 4
@hf_kafka_acl_host = internal global i32 0, align 4
@hf_kafka_acl_operation = internal global i32 0, align 4
@hf_kafka_acl_permission_type = internal global i32 0, align 4
@ett_kafka_acl_filter = internal global i32 0, align 4
@.str.730 = private unnamed_addr constant [7 x i8] c"Filter\00", align 1

; Function Attrs: null_pointer_is_valid sspstrong uwtable
define internal i32 @dissect_kafka_int8(ptr noundef %0, i32 noundef %1, ptr noundef %2, ptr noundef %3, i32 noundef %4, ptr noundef %5) #0 {
  %7 = alloca ptr, align 8
  %8 = alloca i32, align 4
  %9 = alloca ptr, align 8
  %10 = alloca ptr, align 8
  %11 = alloca i32, align 4
  %12 = alloca ptr, align 8
  store ptr %0, ptr %7, align 8
  store i32 %1, ptr %8, align 4
  store ptr %2, ptr %9, align 8
  store ptr %3, ptr %10, align 8
  store i32 %4, ptr %11, align 4
  store ptr %5, ptr %12, align 8
  %13 = load ptr, ptr %12, align 8
  %14 = icmp ne ptr %13, null
  br i1 %14, label %15, label %20

15:                                               ; preds = %6
  %16 = load ptr, ptr %9, align 8
  %17 = load i32, ptr %11, align 4
  %18 = call signext i8 @tvb_get_int8(ptr noundef %16, i32 noundef %17)
  %19 = load ptr, ptr %12, align 8
  store i8 %18, ptr %19, align 1
  br label %20

20:                                               ; preds = %15, %6
  %21 = load ptr, ptr %7, align 8
  %22 = load i32, ptr %8, align 4
  %23 = load ptr, ptr %9, align 8
  %24 = load i32, ptr %11, align 4
  %25 = call ptr @proto_tree_add_item(ptr noundef %21, i32 noundef %22, ptr noundef %23, i32 noundef %24, i32 noundef 1, i32 noundef 0)
  %26 = load i32, ptr %11, align 4
  %27 = add i32 %26, 1
  ret i32 %27
}

; Function Attrs: null_pointer_is_valid sspstrong uwtable
define internal i32 @dissect_kafka_delete_acls_request_filter(ptr noundef %0, ptr noundef %1, ptr noundef %2, i32 noundef %3, i16 noundef signext %4) #0 {
  %6 = alloca ptr, align 8
  %7 = alloca ptr, align 8
  %8 = alloca ptr, align 8
  %9 = alloca i32, align 4
  %10 = alloca i16, align 2
  %11 = alloca ptr, align 8
  %12 = alloca ptr, align 8
  store ptr %0, ptr %6, align 8
  store ptr %1, ptr %7, align 8
  store ptr %2, ptr %8, align 8
  store i32 %3, ptr %9, align 4
  store i16 %4, ptr %10, align 2
  call void @llvm.lifetime.start.p0(i64 8, ptr %11) #12
  call void @llvm.lifetime.start.p0(i64 8, ptr %12) #12
  %13 = load ptr, ptr %8, align 8
  %14 = load ptr, ptr %6, align 8
  %15 = load i32, ptr %9, align 4
  %16 = load i32, ptr @ett_kafka_acl_filter, align 4
  %17 = call ptr @proto_tree_add_subtree(ptr noundef %13, ptr noundef %14, i32 noundef %15, i32 noundef -1, i32 noundef %16, ptr noundef %11, ptr noundef @.str.730)
  store ptr %17, ptr %12, align 8
  %18 = load ptr, ptr %12, align 8
  %19 = load i32, ptr @hf_kafka_acl_resource_type, align 4
  %20 = load ptr, ptr %6, align 8
  %21 = load ptr, ptr %7, align 8
  %22 = load i32, ptr %9, align 4
  %23 = call i32 @dissect_kafka_int8(ptr noundef %18, i32 noundef %19, ptr noundef %20, ptr noundef %21, i32 noundef %22, ptr noundef null)
  store i32 %23, ptr %9, align 4
  %24 = load ptr, ptr %12, align 8
  %25 = load i32, ptr @hf_kafka_acl_resource_name, align 4
  %26 = load ptr, ptr %6, align 8
  %27 = load ptr, ptr %7, align 8
  %28 = load i32, ptr %9, align 4
  %29 = load i16, ptr %10, align 2
  %30 = sext i16 %29 to i32
  %31 = icmp sge i32 %30, 2
  %32 = zext i1 %31 to i32
  %33 = call i32 @dissect_kafka_string(ptr noundef %24, i32 noundef %25, ptr noundef %26, ptr noundef %27, i32 noundef %28, i32 noundef %32, ptr noundef null, ptr noundef null)
  store i32 %33, ptr %9, align 4
  %34 = load i16, ptr %10, align 2
  %35 = sext i16 %34 to i32
  %36 = icmp sge i32 %35, 1
  br i1 %36, label %37, label %44

37:                                               ; preds = %5
  %38 = load ptr, ptr %12, align 8
  %39 = load i32, ptr @hf_kafka_acl_resource_pattern_type, align 4
  %40 = load ptr, ptr %6, align 8
  %41 = load ptr, ptr %7, align 8
  %42 = load i32, ptr %9, align 4
  %43 = call i32 @dissect_kafka_int8(ptr noundef %38, i32 noundef %39, ptr noundef %40, ptr noundef %41, i32 noundef %42, ptr noundef null)
  store i32 %43, ptr %9, align 4
  br label %44

44:                                               ; preds = %37, %5
  %45 = load ptr, ptr %12, align 8
  %46 = load i32, ptr @hf_kafka_acl_principal, align 4
  %47 = load ptr, ptr %6, align 8
  %48 = load ptr, ptr %7, align 8
  %49 = load i32, ptr %9, align 4
  %50 = load i16, ptr %10, align 2
  %51 = sext i16 %50 to i32
  %52 = icmp sge i32 %51, 2
  %53 = zext i1 %52 to i32
  %54 = call i32 @dissect_kafka_string(ptr noundef %45, i32 noundef %46, ptr noundef %47, ptr noundef %48, i32 noundef %49, i32 noundef %53, ptr noundef null, ptr noundef null)
  store i32 %54, ptr %9, align 4
  %55 = load ptr, ptr %12, align 8
  %56 = load i32, ptr @hf_kafka_acl_host, align 4
  %57 = load ptr, ptr %6, align 8
  %58 = load ptr, ptr %7, align 8
  %59 = load i32, ptr %9, align 4
  %60 = load i16, ptr %10, align 2
  %61 = sext i16 %60 to i32
  %62 = icmp sge i32 %61, 2
  %63 = zext i1 %62 to i32
  %64 = call i32 @dissect_kafka_string(ptr noundef %55, i32 noundef %56, ptr noundef %57, ptr noundef %58, i32 noundef %59, i32 noundef %63, ptr noundef null, ptr noundef null)
  store i32 %64, ptr %9, align 4
  %65 = load ptr, ptr %12, align 8
  %66 = load i32, ptr @hf_kafka_acl_operation, align 4
  %67 = load ptr, ptr %6, align 8
  %68 = load ptr, ptr %7, align 8
  %69 = load i32, ptr %9, align 4
  %70 = call i32 @dissect_kafka_int8(ptr noundef %65, i32 noundef %66, ptr noundef %67, ptr noundef %68, i32 noundef %69, ptr noundef null)
  store i32 %70, ptr %9, align 4
  %71 = load ptr, ptr %12, align 8
  %72 = load i32, ptr @hf_kafka_acl_permission_type, align 4
  %73 = load ptr, ptr %6, align 8
  %74 = load ptr, ptr %7, align 8
  %75 = load i32, ptr %9, align 4
  %76 = call i32 @dissect_kafka_int8(ptr noundef %71, i32 noundef %72, ptr noundef %73, ptr noundef %74, i32 noundef %75, ptr noundef null)
  store i32 %76, ptr %9, align 4
  %77 = load i16, ptr %10, align 2
  %78 = sext i16 %77 to i32
  %79 = icmp sge i32 %78, 2
  br i1 %79, label %80, label %86

80:                                               ; preds = %44
  %81 = load ptr, ptr %6, align 8
  %82 = load ptr, ptr %7, align 8
  %83 = load ptr, ptr %12, align 8
  %84 = load i32, ptr %9, align 4
  %85 = call i32 @dissect_kafka_tagged_fields(ptr noundef %81, ptr noundef %82, ptr noundef %83, i32 noundef %84, i16 noundef signext 0)
  store i32 %85, ptr %9, align 4
  br label %86

86:                                               ; preds = %80, %44
  %87 = load ptr, ptr %11, align 8
  %88 = load ptr, ptr %6, align 8
  %89 = load i32, ptr %9, align 4
  call void @proto_item_set_end(ptr noundef %87, ptr noundef %88, i32 noundef %89)
  %90 = load i32, ptr %9, align 4
  call void @llvm.lifetime.end.p0(i64 8, ptr %12) #12
  call void @llvm.lifetime.end.p0(i64 8, ptr %11) #12
  ret i32 %90
}