; Function Attrs: null_pointer_is_valid sspstrong uwtable
define internal noundef i32 @dissect_kafka_delete_acls_request_filter(ptr noundef %0, ptr noundef %1, ptr noundef %2, i32 noundef %3, i16 noundef signext %4) #0 {
  %6 = alloca ptr, align 8
  call void @llvm.lifetime.start.p0(i64 8, ptr nonnull %6) #9
  %7 = load i32, ptr @ett_kafka_acl_filter, align 4
  %8 = call ptr @proto_tree_add_subtree(ptr noundef %2, ptr noundef %0, i32 noundef %3, i32 noundef -1, i32 noundef %7, ptr noundef nonnull %6, ptr noundef nonnull @.str.730)
  %9 = load i32, ptr @hf_kafka_acl_resource_type, align 4
  %10 = call ptr @proto_tree_add_item(ptr noundef %8, i32 noundef %9, ptr noundef %0, i32 noundef %3, i32 noundef 1, i32 noundef 0)
  %11 = add i32 %3, 1
  %12 = load i32, ptr @hf_kafka_acl_resource_name, align 4
  %13 = icmp sgt i16 %4, 1
  %14 = zext i1 %13 to i32
  %15 = call fastcc i32 @dissect_kafka_string(ptr noundef %8, i32 noundef %12, ptr noundef %0, ptr noundef %1, i32 noundef %11, i32 noundef %14, ptr noundef null, ptr noundef null)
  %16 = icmp sgt i16 %4, 0
  br i1 %16, label %17, label %21

17:                                               ; preds = %5
  %18 = load i32, ptr @hf_kafka_acl_resource_pattern_type, align 4
  %19 = call ptr @proto_tree_add_item(ptr noundef %8, i32 noundef %18, ptr noundef %0, i32 noundef %15, i32 noundef 1, i32 noundef 0)
  %20 = add i32 %15, 1
  br label %21

21:                                               ; preds = %17, %5
  %.0 = phi i32 [ %20, %17 ], [ %15, %5 ]
  %22 = load i32, ptr @hf_kafka_acl_principal, align 4
  %23 = call fastcc i32 @dissect_kafka_string(ptr noundef %8, i32 noundef %22, ptr noundef %0, ptr noundef %1, i32 noundef %.0, i32 noundef %14, ptr noundef null, ptr noundef null)
  %24 = load i32, ptr @hf_kafka_acl_host, align 4
  %25 = call fastcc i32 @dissect_kafka_string(ptr noundef %8, i32 noundef %24, ptr noundef %0, ptr noundef %1, i32 noundef %23, i32 noundef %14, ptr noundef null, ptr noundef null)
  %26 = load i32, ptr @hf_kafka_acl_operation, align 4
  %27 = call ptr @proto_tree_add_item(ptr noundef %8, i32 noundef %26, ptr noundef %0, i32 noundef %25, i32 noundef 1, i32 noundef 0)
  %28 = add i32 %25, 1
  %29 = load i32, ptr @hf_kafka_acl_permission_type, align 4
  %30 = call ptr @proto_tree_add_item(ptr noundef %8, i32 noundef %29, ptr noundef %0, i32 noundef %28, i32 noundef 1, i32 noundef 0)
  %31 = add i32 %25, 2
  br i1 %13, label %32, label %34

32:                                               ; preds = %21
  %33 = call fastcc i32 @dissect_kafka_tagged_fields(ptr noundef %0, ptr noundef %1, ptr noundef %8, i32 noundef %31)
  br label %34

34:                                               ; preds = %32, %21
  %.1 = phi i32 [ %33, %32 ], [ %31, %21 ]
  %35 = load ptr, ptr %6, align 8
  call void @proto_item_set_end(ptr noundef %35, ptr noundef %0, i32 noundef %.1)
  call void @llvm.lifetime.end.p0(i64 8, ptr nonnull %6) #9
  ret i32 %.1
}